target datalayout = "e-m:e-p270:32:32-p271:32:32-p272:64:64-i64:64-i128:128-f80:128-n8:16:32:64-S128"
target triple = "x86_64-pc-linux-gnu"

%struct.point_t = type { float, float }
%struct.dt_lut_t = type { ptr, ptr, ptr, ptr, ptr, ptr, ptr, ptr, ptr, ptr, ptr, ptr, ptr, ptr, ptr, ptr, ptr, %struct.image_t, %struct.image_t, ptr, ptr, ptr, ptr, ptr }
%struct.image_t = type { ptr, ptr, ptr, i32, i32, ptr, float, i32, i32, float, [4 x %struct.point_t], ptr, i32 }

; Function Attrs: nounwind uwtable
define internal ptr @find_patch(ptr noundef %0, ptr noundef %1) #0 {
  %3 = alloca ptr, align 8
  %4 = alloca ptr, align 8
  %5 = alloca ptr, align 8
  store ptr %0, ptr %3, align 8, !tbaa !131
  store ptr %1, ptr %4, align 8, !tbaa !62
  call void @llvm.lifetime.start.p0(i64 8, ptr %5) #15
  %6 = load ptr, ptr %3, align 8, !tbaa !131
  %7 = load ptr, ptr %4, align 8, !tbaa !62
  %8 = call ptr @g_hash_table_lookup(ptr noundef %6, ptr noundef %7)
  store ptr %8, ptr %5, align 8, !tbaa !125
  %9 = load ptr, ptr %5, align 8, !tbaa !125
  %10 = icmp ne ptr %9, null
  br i1 %10, label %18, label %11

11:                                               ; preds = %2
  %12 = call noalias ptr @calloc(i64 noundef 1, i64 noundef 64) #16
  store ptr %12, ptr %5, align 8, !tbaa !125
  %13 = load ptr, ptr %3, align 8, !tbaa !131
  %14 = load ptr, ptr %4, align 8, !tbaa !62
  %15 = call noalias ptr @g_strdup(ptr noundef %14)
  %16 = load ptr, ptr %5, align 8, !tbaa !125
  %17 = call i32 @g_hash_table_insert(ptr noundef %13, ptr noundef %15, ptr noundef %16)
  br label %18

18:                                               ; preds = %11, %2
  %19 = load ptr, ptr %5, align 8, !tbaa !125
  call void @llvm.lifetime.end.p0(i64 8, ptr %5) #15
  ret ptr %19
}

; Function Attrs: nounwind uwtable
define internal void @collect_source_patches_foreach(ptr noundef %0, ptr noundef %1, ptr noundef %2) #0 {
  %4 = alloca ptr, align 8
  %5 = alloca ptr, align 8
  %6 = alloca ptr, align 8
  %7 = alloca ptr, align 8
  %8 = alloca ptr, align 8
  %9 = alloca [4 x float], align 16
  %10 = alloca ptr, align 8
  store ptr %0, ptr %4, align 8, !tbaa !62
  store ptr %1, ptr %5, align 8, !tbaa !62
  store ptr %2, ptr %6, align 8, !tbaa !62
  call void @llvm.lifetime.start.p0(i64 8, ptr %7) #15
  %11 = load ptr, ptr %6, align 8, !tbaa !62
  store ptr %11, ptr %7, align 8, !tbaa !14
  call void @llvm.lifetime.start.p0(i64 8, ptr %8) #15
  %12 = load ptr, ptr %5, align 8, !tbaa !62
  store ptr %12, ptr %8, align 8, !tbaa !125
  call void @llvm.lifetime.start.p0(i64 16, ptr %9) #15
  call void @llvm.lifetime.start.p0(i64 8, ptr %10) #15
  %13 = load ptr, ptr %7, align 8, !tbaa !14
  %14 = getelementptr inbounds nuw %struct.dt_lut_t, ptr %13, i32 0, i32 21
  %15 = load ptr, ptr %14, align 8, !tbaa !16
  %16 = load ptr, ptr %4, align 8, !tbaa !62
  %17 = call ptr @find_patch(ptr noundef %15, ptr noundef %16)
  store ptr %17, ptr %10, align 8, !tbaa !125
  %18 = load ptr, ptr %7, align 8, !tbaa !14
  %19 = getelementptr inbounds nuw %struct.dt_lut_t, ptr %18, i32 0, i32 17
  %20 = load ptr, ptr %7, align 8, !tbaa !14
  %21 = getelementptr inbounds nuw %struct.dt_lut_t, ptr %20, i32 0, i32 17
  %22 = getelementptr inbounds nuw %struct.image_t, ptr %21, i32 0, i32 9
  %23 = load float, ptr %22, align 4, !tbaa !80
  %24 = load ptr, ptr %8, align 8, !tbaa !125
  %25 = getelementptr inbounds [4 x float], ptr %9, i64 0, i64 0
  call void @get_xyz_sample_from_image(ptr noundef %19, float noundef %23, ptr noundef %24, ptr noundef %25)
  %26 = load ptr, ptr %10, align 8, !tbaa !125
  %27 = getelementptr inbounds [4 x float], ptr %9, i64 0, i64 0
  %28 = load float, ptr %27, align 16, !tbaa !60
  %29 = fpext reassoc nsz arcp contract afn float %28 to double
  %30 = fmul reassoc nsz arcp contract afn double %29, 1.000000e+02
  %31 = fptrunc reassoc nsz arcp contract afn double %30 to float
  %32 = getelementptr inbounds [4 x float], ptr %9, i64 0, i64 1
  %33 = load float, ptr %32, align 4, !tbaa !60
  %34 = fpext reassoc nsz arcp contract afn float %33 to double
  %35 = fmul reassoc nsz arcp contract afn double %34, 1.000000e+02
  %36 = fptrunc reassoc nsz arcp contract afn double %35 to float
  %37 = getelementptr inbounds [4 x float], ptr %9, i64 0, i64 2
  %38 = load float, ptr %37, align 8, !tbaa !60
  %39 = fpext reassoc nsz arcp contract afn float %38 to double
  %40 = fmul reassoc nsz arcp contract afn double %39, 1.000000e+02
  %41 = fptrunc reassoc nsz arcp contract afn double %40 to float
  call void @checker_set_color(ptr noundef %26, i32 noundef 5, float noundef %31, float noundef %36, float noundef %41)
  call void @llvm.lifetime.end.p0(i64 8, ptr %10) #15
  call void @llvm.lifetime.end.p0(i64 16, ptr %9) #15
  call void @llvm.lifetime.end.p0(i64 8, ptr %8) #15
  call void @llvm.lifetime.end.p0(i64 8, ptr %7) #15
  ret void
}