; Function Attrs: nounwind uwtable
define internal void @collect_source_patches_foreach(ptr noundef %0, ptr noundef %1, ptr noundef readonly captures(none) %2) #0 {
  %4 = alloca [4 x float], align 16
  call void @llvm.lifetime.start.p0(i64 16, ptr nonnull %4) #24
  %5 = getelementptr inbounds nuw i8, ptr %2, i64 360
  %6 = load ptr, ptr %5, align 8, !tbaa !7
  %7 = tail call ptr @g_hash_table_lookup(ptr noundef %6, ptr noundef %0) #24
  %.not.i = icmp eq ptr %7, null
  br i1 %.not.i, label %8, label %find_patch.exit

8:                                                ; preds = %3
  %9 = tail call noalias dereferenceable_or_null(64) ptr @calloc(i64 noundef 1, i64 noundef 64) #23
  %10 = tail call noalias ptr @g_strdup(ptr noundef %0) #24
  %11 = tail call i32 @g_hash_table_insert(ptr noundef %6, ptr noundef %10, ptr noundef %9) #24
  br label %find_patch.exit

find_patch.exit:                                  ; preds = %3, %8
  %.0.i = phi ptr [ %7, %3 ], [ %9, %8 ]
  %12 = getelementptr inbounds nuw i8, ptr %2, i64 136
  %13 = getelementptr inbounds nuw i8, ptr %2, i64 188
  %14 = load float, ptr %13, align 4, !tbaa !79
  call fastcc void @get_xyz_sample_from_image(ptr noundef nonnull %12, float noundef %14, ptr noundef %1, ptr noundef %4)
  %15 = load float, ptr %4, align 16, !tbaa !67
  %16 = fmul reassoc nsz arcp contract afn float %15, 1.000000e+02
  %17 = getelementptr inbounds nuw i8, ptr %4, i64 4
  %18 = load float, ptr %17, align 4, !tbaa !67
  %19 = fmul reassoc nsz arcp contract afn float %18, 1.000000e+02
  %20 = getelementptr inbounds nuw i8, ptr %4, i64 8
  %21 = load float, ptr %20, align 8, !tbaa !67
  %22 = fmul reassoc nsz arcp contract afn float %21, 1.000000e+02
  tail call void @checker_set_color(ptr noundef %.0.i, i32 noundef 5, float noundef %16, float noundef %19, float noundef %22) #24
  call void @llvm.lifetime.end.p0(i64 16, ptr nonnull %4) #24
  ret void
}